target datalayout = "e-m:e-p270:32:32-p271:32:32-p272:64:64-i64:64-i128:128-f80:128-n8:16:32:64-S128"
target triple = "x86_64-unknown-linux-gnu"

%"struct.cached_var_subst::key" = type { ptr, i32, [0 x ptr] }

; Function Attrs: mustprogress nounwind uwtable
define hidden noundef zeroext i1 @_ZNK16cached_var_subst11key_eq_procclEPNS_3keyES2_(ptr noundef nonnull align 1 dereferenceable(1) %this, ptr noundef %k1, ptr noundef %k2) #4 align 2 {
entry:
  %retval = alloca i1, align 1
  %this.addr = alloca ptr, align 8
  %k1.addr = alloca ptr, align 8
  %k2.addr = alloca ptr, align 8
  %i = alloca i32, align 4
  store ptr %this, ptr %this.addr, align 8
  store ptr %k1, ptr %k1.addr, align 8
  store ptr %k2, ptr %k2.addr, align 8
  %0 = load ptr, ptr %k1.addr, align 8
  %m_qa = getelementptr inbounds %"struct.cached_var_subst::key", ptr %0, i32 0, i32 0
  %1 = load ptr, ptr %m_qa, align 8
  %2 = load ptr, ptr %k2.addr, align 8
  %m_qa2 = getelementptr inbounds %"struct.cached_var_subst::key", ptr %2, i32 0, i32 0
  %3 = load ptr, ptr %m_qa2, align 8
  %cmp = icmp ne ptr %1, %3
  br i1 %cmp, label %if.then, label %if.end

if.then:                                          ; preds = %entry
  store i1 false, ptr %retval, align 1
  br label %return

if.end:                                           ; preds = %entry
  %4 = load ptr, ptr %k1.addr, align 8
  %m_num_bindings = getelementptr inbounds %"struct.cached_var_subst::key", ptr %4, i32 0, i32 1
  %5 = load i32, ptr %m_num_bindings, align 8
  %6 = load ptr, ptr %k2.addr, align 8
  %m_num_bindings3 = getelementptr inbounds %"struct.cached_var_subst::key", ptr %6, i32 0, i32 1
  %7 = load i32, ptr %m_num_bindings3, align 8
  %cmp4 = icmp ne i32 %5, %7
  br i1 %cmp4, label %if.then5, label %if.end6

if.then5:                                         ; preds = %if.end
  store i1 false, ptr %retval, align 1
  br label %return

if.end6:                                          ; preds = %if.end
  store i32 0, ptr %i, align 4
  br label %for.cond

for.cond:                                         ; preds = %for.inc, %if.end6
  %8 = load i32, ptr %i, align 4
  %9 = load ptr, ptr %k1.addr, align 8
  %m_num_bindings7 = getelementptr inbounds %"struct.cached_var_subst::key", ptr %9, i32 0, i32 1
  %10 = load i32, ptr %m_num_bindings7, align 8
  %cmp8 = icmp ult i32 %8, %10
  br i1 %cmp8, label %for.body, label %for.end

for.body:                                         ; preds = %for.cond
  %11 = load ptr, ptr %k1.addr, align 8
  %m_bindings = getelementptr inbounds %"struct.cached_var_subst::key", ptr %11, i32 0, i32 2
  %12 = load i32, ptr %i, align 4
  %idxprom = zext i32 %12 to i64
  %arrayidx = getelementptr inbounds [0 x ptr], ptr %m_bindings, i64 0, i64 %idxprom
  %13 = load ptr, ptr %arrayidx, align 8
  %14 = load ptr, ptr %k2.addr, align 8
  %m_bindings9 = getelementptr inbounds %"struct.cached_var_subst::key", ptr %14, i32 0, i32 2
  %15 = load i32, ptr %i, align 4
  %idxprom10 = zext i32 %15 to i64
  %arrayidx11 = getelementptr inbounds [0 x ptr], ptr %m_bindings9, i64 0, i64 %idxprom10
  %16 = load ptr, ptr %arrayidx11, align 8
  %cmp12 = icmp ne ptr %13, %16
  br i1 %cmp12, label %if.then13, label %if.end14

if.then13:                                        ; preds = %for.body
  store i1 false, ptr %retval, align 1
  br label %return

if.end14:                                         ; preds = %for.body
  br label %for.inc

for.inc:                                          ; preds = %if.end14
  %17 = load i32, ptr %i, align 4
  %inc = add i32 %17, 1
  store i32 %inc, ptr %i, align 4
  br label %for.cond, !llvm.loop !4

for.end:                                          ; preds = %for.cond
  store i1 true, ptr %retval, align 1
  br label %return

return:                                           ; preds = %for.end, %if.then13, %if.then5, %if.then
  %18 = load i1, ptr %retval, align 1
  ret i1 %18
}