; Function Attrs: mustprogress nofree norecurse nosync nounwind willreturn memory(argmem: read) uwtable
define hidden noundef zeroext i1 @_ZNK16cached_var_subst11key_eq_procclEPNS_3keyES2_(ptr nocapture noundef nonnull readnone align 1 dereferenceable(1) %this, ptr nocapture noundef readonly %k1, ptr nocapture noundef readonly %k2) local_unnamed_addr #3 align 2 {
entry:
  %0 = load ptr, ptr %k1, align 8
  %1 = load ptr, ptr %k2, align 8
  %cmp.not = icmp eq ptr %0, %1
  br i1 %cmp.not, label %if.end, label %return

if.end:                                           ; preds = %entry
  %m_num_bindings = getelementptr inbounds i8, ptr %k1, i64 8
  %2 = load i32, ptr %m_num_bindings, align 8
  %m_num_bindings3 = getelementptr inbounds i8, ptr %k2, i64 8
  %3 = load i32, ptr %m_num_bindings3, align 8
  %cmp4.not = icmp eq i32 %2, %3
  br i1 %cmp4.not, label %for.cond.preheader, label %return

for.cond.preheader:                               ; preds = %if.end
  %m_bindings = getelementptr inbounds i8, ptr %k1, i64 16
  %cmp89.not = icmp eq i32 %2, 0
  br i1 %cmp89.not, label %return, label %for.body.lr.ph

for.body.lr.ph:                                   ; preds = %for.cond.preheader
  %m_bindings9 = getelementptr inbounds i8, ptr %k2, i64 16
  %wide.trip.count = zext i32 %2 to i64
  br label %for.body

for.body:                                         ; preds = %for.body, %for.body.lr.ph
  %indvars.iv = phi i64 [ 0, %for.body.lr.ph ], [ %indvars.iv.next, %for.body ]
  %arrayidx = getelementptr inbounds [0 x ptr], ptr %m_bindings, i64 0, i64 %indvars.iv
  %4 = load ptr, ptr %arrayidx, align 8
  %arrayidx11 = getelementptr inbounds [0 x ptr], ptr %m_bindings9, i64 0, i64 %indvars.iv
  %5 = load ptr, ptr %arrayidx11, align 8
  %cmp12.not = icmp eq ptr %4, %5
  %indvars.iv.next = add nuw nsw i64 %indvars.iv, 1
  %exitcond.not = icmp ne i64 %indvars.iv.next, %wide.trip.count
  %or.cond.not = select i1 %cmp12.not, i1 %exitcond.not, i1 false
  br i1 %or.cond.not, label %for.body, label %return, !llvm.loop !4

return:                                           ; preds = %for.body, %for.cond.preheader, %if.end, %entry
  %retval.0 = phi i1 [ false, %entry ], [ false, %if.end ], [ true, %for.cond.preheader ], [ %cmp12.not, %for.body ]
  ret i1 %retval.0
}